; Function Attrs: mustprogress uwtable
define hidden void @_ZNK19OpenColorIO_v2_5dev12IndexMapping7getPairEmRfS1_(ptr noundef nonnull readonly align 8 captures(none) dereferenceable(88) %0, i64 noundef %1, ptr noundef nonnull writeonly align 4 captures(none) dereferenceable(4) initializes((0, 4)) %2, ptr noundef nonnull writeonly align 4 captures(none) dereferenceable(4) initializes((0, 4)) %3) local_unnamed_addr #0 align 2 {
  tail call void @_ZNK19OpenColorIO_v2_5dev12IndexMapping13validateIndexEm(ptr noundef nonnull align 8 dereferenceable(88) %0, i64 noundef %1)
  %5 = getelementptr inbounds nuw i8, ptr %0, i64 16
  %6 = load ptr, ptr %5, align 8, !tbaa !10
  %7 = getelementptr inbounds nuw %"struct.std::pair", ptr %6, i64 %1
  %8 = load float, ptr %7, align 4, !tbaa !31
  store float %8, ptr %2, align 4, !tbaa !16
  %9 = getelementptr inbounds nuw i8, ptr %7, i64 4
  %10 = load float, ptr %9, align 4, !tbaa !33
  store float %10, ptr %3, align 4, !tbaa !16
  ret void
}